; Function Attrs: nounwind uwtable
define hidden void @zim_PDOStatement_rowCount(ptr noundef readonly captures(none) %0, ptr noundef writeonly captures(none) %1) #0 {
  %3 = getelementptr inbounds nuw i8, ptr %0, i64 44
  %4 = load i32, ptr %3, align 4, !tbaa !37
  %.not = icmp eq i32 %4, 0
  br i1 %.not, label %6, label %5, !prof !104

5:                                                ; preds = %2
  tail call void @zend_wrong_parameters_none_error() #17
  br label %23

6:                                                ; preds = %2
  %7 = getelementptr inbounds nuw i8, ptr %0, i64 32
  %8 = load ptr, ptr %7, align 8, !tbaa !37
  %9 = getelementptr inbounds i8, ptr %8, i64 -48
  %10 = load ptr, ptr %9, align 8, !tbaa !27
  %.not8 = icmp eq ptr %10, null
  br i1 %.not8, label %11, label %19

11:                                               ; preds = %6
  %12 = getelementptr inbounds nuw i8, ptr %8, i64 16
  %13 = load ptr, ptr %12, align 8, !tbaa !45
  %14 = getelementptr inbounds nuw i8, ptr %13, i64 8
  %15 = load ptr, ptr %14, align 8, !tbaa !46
  %16 = getelementptr inbounds nuw i8, ptr %15, i64 24
  tail call void (ptr, ptr, ...) @zend_throw_error(ptr noundef null, ptr noundef nonnull @.str, ptr noundef nonnull %16) #17
  %17 = load ptr, ptr getelementptr inbounds nuw (i8, ptr @executor_globals, i64 960), align 8, !tbaa !59
  %18 = icmp ne ptr %17, null
  tail call void @llvm.assume(i1 %18)
  br label %23

19:                                               ; preds = %6
  %20 = getelementptr inbounds i8, ptr %8, i64 -32
  %21 = load i64, ptr %20, align 8, !tbaa !136
  store i64 %21, ptr %1, align 8, !tbaa !37
  %22 = getelementptr inbounds nuw i8, ptr %1, i64 8
  store i32 4, ptr %22, align 8, !tbaa !37
  br label %23

23:                                               ; preds = %11, %19, %5
  ret void
}